; Function Attrs: mustprogress nounwind uwtable
define internal void @_ZNK12_GLOBAL__N_116itanium_demangle8NameType9printLeftERNS0_12OutputBufferE(ptr noundef nonnull readonly align 8 captures(none) dereferenceable(32) %0, ptr noundef nonnull align 8 captures(none) dereferenceable(44) %1) unnamed_addr #11 align 2 {
  %3 = getelementptr inbounds nuw i8, ptr %0, i64 16
  %.sroa.0.0.copyload = load ptr, ptr %3, align 8, !tbaa !219
  %.sroa.2.0..sroa_idx = getelementptr inbounds nuw i8, ptr %0, i64 24
  %.sroa.2.0.copyload = load i64, ptr %.sroa.2.0..sroa_idx, align 8, !tbaa !220
  %.not.i = icmp eq i64 %.sroa.2.0.copyload, 0
  br i1 %.not.i, label %_ZN12_GLOBAL__N_116itanium_demangle12OutputBufferpLENSt3__117basic_string_viewIcNS2_11char_traitsIcEEEE.exit, label %4

4:                                                ; preds = %2
  %5 = getelementptr inbounds nuw i8, ptr %1, i64 16
  %6 = load i64, ptr %5, align 8, !tbaa !224
  %7 = add i64 %6, %.sroa.2.0.copyload
  %8 = getelementptr inbounds nuw i8, ptr %1, i64 24
  %9 = load i64, ptr %8, align 8, !tbaa !225
  %10 = icmp ugt i64 %7, %9
  br i1 %10, label %11, label %._ZN12_GLOBAL__N_116itanium_demangle12OutputBuffer4growEm.exit_crit_edge.i

._ZN12_GLOBAL__N_116itanium_demangle12OutputBuffer4growEm.exit_crit_edge.i: ; preds = %4
  %.phi.trans.insert.i = getelementptr inbounds nuw i8, ptr %1, i64 8
  %.pre.i = load ptr, ptr %.phi.trans.insert.i, align 8, !tbaa !222
  br label %_ZN12_GLOBAL__N_116itanium_demangle12OutputBuffer4growEm.exit.i

11:                                               ; preds = %4
  %12 = add i64 %7, 992
  %13 = shl i64 %9, 1
  %spec.select.i.i = tail call i64 @llvm.umax.i64(i64 %13, i64 %12)
  store i64 %spec.select.i.i, ptr %8, align 8, !tbaa !225
  %14 = getelementptr inbounds nuw i8, ptr %1, i64 8
  %15 = load ptr, ptr %14, align 8, !tbaa !222
  %16 = tail call ptr @realloc(ptr noundef %15, i64 noundef %spec.select.i.i) #34
  store ptr %16, ptr %14, align 8, !tbaa !222
  %17 = icmp eq ptr %16, null
  br i1 %17, label %18, label %._ZN12_GLOBAL__N_116itanium_demangle12OutputBuffer4growEm.exit_crit_edge4.i

._ZN12_GLOBAL__N_116itanium_demangle12OutputBuffer4growEm.exit_crit_edge4.i: ; preds = %11
  %.pre5.i = load i64, ptr %5, align 8, !tbaa !224
  br label %_ZN12_GLOBAL__N_116itanium_demangle12OutputBuffer4growEm.exit.i

18:                                               ; preds = %11
  tail call void @abort() #33
  unreachable

_ZN12_GLOBAL__N_116itanium_demangle12OutputBuffer4growEm.exit.i: ; preds = %._ZN12_GLOBAL__N_116itanium_demangle12OutputBuffer4growEm.exit_crit_edge4.i, %._ZN12_GLOBAL__N_116itanium_demangle12OutputBuffer4growEm.exit_crit_edge.i
  %19 = phi i64 [ %6, %._ZN12_GLOBAL__N_116itanium_demangle12OutputBuffer4growEm.exit_crit_edge.i ], [ %.pre5.i, %._ZN12_GLOBAL__N_116itanium_demangle12OutputBuffer4growEm.exit_crit_edge4.i ]
  %20 = phi ptr [ %.pre.i, %._ZN12_GLOBAL__N_116itanium_demangle12OutputBuffer4growEm.exit_crit_edge.i ], [ %16, %._ZN12_GLOBAL__N_116itanium_demangle12OutputBuffer4growEm.exit_crit_edge4.i ]
  %21 = getelementptr inbounds nuw i8, ptr %20, i64 %19
  tail call void @llvm.memcpy.p0.p0.i64(ptr align 1 %21, ptr readonly align 1 %.sroa.0.0.copyload, i64 %.sroa.2.0.copyload, i1 false)
  %22 = load i64, ptr %5, align 8, !tbaa !224
  %23 = add i64 %22, %.sroa.2.0.copyload
  store i64 %23, ptr %5, align 8, !tbaa !224
  br label %_ZN12_GLOBAL__N_116itanium_demangle12OutputBufferpLENSt3__117basic_string_viewIcNS2_11char_traitsIcEEEE.exit

_ZN12_GLOBAL__N_116itanium_demangle12OutputBufferpLENSt3__117basic_string_viewIcNS2_11char_traitsIcEEEE.exit: ; preds = %2, %_ZN12_GLOBAL__N_116itanium_demangle12OutputBuffer4growEm.exit.i
  ret void
}